target datalayout = "e-m:e-p270:32:32-p271:32:32-p272:64:64-i64:64-i128:128-f80:128-n8:16:32:64-S128"
target triple = "x86_64-pc-linux-gnu"

%struct.darktable_t = type { %struct.dt_codepath_t, i32, i32, ptr, ptr, ptr, ptr, ptr, ptr, ptr, ptr, ptr, ptr, ptr, ptr, ptr, ptr, ptr, ptr, ptr, ptr, ptr, ptr, ptr, ptr, ptr, ptr, ptr, ptr, ptr, [64 x %struct.dt_pthread_mutex_t], %struct.dt_pthread_mutex_t, %struct.dt_pthread_mutex_t, %struct.dt_pthread_mutex_t, %struct.dt_pthread_mutex_t, %struct.dt_pthread_mutex_t, ptr, ptr, ptr, ptr, ptr, ptr, ptr, ptr, ptr, ptr, ptr, ptr, ptr, %struct.dt_lua_state_t, ptr, double, ptr, i32, [47 x i32], i32, i32, ptr, ptr, %struct.dt_sys_resources_t, %struct.dt_backthumb_t, %struct.dt_gimp_t }
%struct.dt_codepath_t = type { i8, [3 x i8] }
%struct.dt_pthread_mutex_t = type { %union.pthread_mutex_t }
%union.pthread_mutex_t = type { %struct.__pthread_mutex_s }
%struct.__pthread_mutex_s = type { i32, i32, i32, i32, i32, i16, i16, %struct.__pthread_internal_list }
%struct.__pthread_internal_list = type { ptr, ptr }
%struct.dt_lua_state_t = type { i32 }
%struct.dt_sys_resources_t = type { i64, i64, ptr, ptr, i32 }
%struct.dt_backthumb_t = type { double, double, i32, i32, i32, i32 }
%struct.dt_gimp_t = type { i32, ptr, ptr, i32, i32 }
%struct._GdkRGBA = type { double, double, double, double }
%struct.dt_gui_gtk_t = type { ptr, %struct.dt_gui_widgets_t, %struct.dt_gui_scrollbars_t, i32, ptr, i32, [39 x %struct._GdkRGBA], i32, i32, i32, i32, i32, double, double, double, double, ptr, double, double, double, double, i32, i32, [4096 x i8], i32, i32, i32, %struct.dt_pthread_mutex_t }
%struct.dt_gui_widgets_t = type { ptr, ptr, ptr, ptr, i32, i32, i32 }
%struct.dt_gui_scrollbars_t = type { ptr, ptr, i32 }
%struct._GdkEventButton = type { i32, ptr, i8, i32, double, double, ptr, i32, i32, ptr, double, double }

@darktable = external global %struct.darktable_t, align 8
@_resize_wrap_dragging = internal global i32 0, align 4

; Function Attrs: nounwind uwtable
define internal i32 @_resize_wrap_button(ptr noundef %0, ptr noundef %1, ptr noundef %2) #0 {
  %4 = alloca i32, align 4
  %5 = alloca ptr, align 8
  %6 = alloca ptr, align 8
  %7 = alloca ptr, align 8
  store ptr %0, ptr %5, align 8, !tbaa !6
  store ptr %1, ptr %6, align 8, !tbaa !159
  store ptr %2, ptr %7, align 8, !tbaa !11
  %8 = load i32, ptr @_resize_wrap_dragging, align 4, !tbaa !17
  %9 = icmp ne i32 %8, 0
  br i1 %9, label %10, label %16

10:                                               ; preds = %3
  %11 = load ptr, ptr %6, align 8, !tbaa !159
  %12 = getelementptr inbounds nuw %struct._GdkEventButton, ptr %11, i32 0, i32 0
  %13 = load i32, ptr %12, align 8, !tbaa !165
  %14 = icmp eq i32 %13, 7
  br i1 %14, label %15, label %16

15:                                               ; preds = %10
  store i32 0, ptr @_resize_wrap_dragging, align 4, !tbaa !17
  call void @dt_control_change_cursor(i32 noundef 68)
  store i32 1, ptr %4, align 4
  br label %42

16:                                               ; preds = %10, %3
  %17 = load ptr, ptr %6, align 8, !tbaa !159
  %18 = getelementptr inbounds nuw %struct._GdkEventButton, ptr %17, i32 0, i32 5
  %19 = load double, ptr %18, align 8, !tbaa !163
  %20 = load ptr, ptr %5, align 8, !tbaa !6
  %21 = call i32 @gtk_widget_get_allocated_height(ptr noundef %20)
  %22 = sitofp i32 %21 to double
  %23 = load ptr, ptr getelementptr inbounds nuw (%struct.darktable_t, ptr @darktable, i32 0, i32 14), align 8, !tbaa !24
  %24 = getelementptr inbounds nuw %struct.dt_gui_gtk_t, ptr %23, i32 0, i32 18
  %25 = load double, ptr %24, align 8, !tbaa !144
  %26 = fmul reassoc nsz arcp contract afn double 5.000000e+00, %25
  %27 = fsub reassoc nsz arcp contract afn double %22, %26
  %28 = fcmp reassoc nsz arcp contract afn ogt double %19, %27
  br i1 %28, label %29, label %40

29:                                               ; preds = %16
  %30 = load ptr, ptr %6, align 8, !tbaa !159
  %31 = getelementptr inbounds nuw %struct._GdkEventButton, ptr %30, i32 0, i32 0
  %32 = load i32, ptr %31, align 8, !tbaa !165
  %33 = icmp eq i32 %32, 4
  br i1 %33, label %34, label %40

34:                                               ; preds = %29
  %35 = load ptr, ptr %6, align 8, !tbaa !159
  %36 = getelementptr inbounds nuw %struct._GdkEventButton, ptr %35, i32 0, i32 8
  %37 = load i32, ptr %36, align 4, !tbaa !164
  %38 = icmp eq i32 %37, 1
  br i1 %38, label %39, label %40

39:                                               ; preds = %34
  store i32 1, ptr @_resize_wrap_dragging, align 4, !tbaa !17
  store i32 1, ptr %4, align 4
  br label %42

40:                                               ; preds = %34, %29, %16
  br label %41

41:                                               ; preds = %40
  store i32 0, ptr %4, align 4
  br label %42

42:                                               ; preds = %41, %39, %15
  %43 = load i32, ptr %4, align 4
  ret i32 %43
}