; Function Attrs: nounwind uwtable
define internal range(i32 0, 2) i32 @_resize_wrap_button(ptr noundef %0, ptr noundef readonly captures(none) %1, ptr readnone captures(none) %2) #0 {
  %.b = load i1, ptr @_resize_wrap_dragging, align 4
  br i1 %.b, label %4, label %8

4:                                                ; preds = %3
  %5 = load i32, ptr %1, align 8, !tbaa !142
  %6 = icmp eq i32 %5, 7
  br i1 %6, label %7, label %8

7:                                                ; preds = %4
  store i1 false, ptr @_resize_wrap_dragging, align 4
  tail call void @dt_control_change_cursor(i32 noundef 68) #18
  br label %27

8:                                                ; preds = %4, %3
  %9 = getelementptr inbounds nuw i8, ptr %1, i64 32
  %10 = load double, ptr %9, align 8, !tbaa !140
  %11 = tail call i32 @gtk_widget_get_allocated_height(ptr noundef %0) #18
  %12 = sitofp i32 %11 to double
  %13 = load ptr, ptr getelementptr inbounds nuw (i8, ptr @darktable, i64 104), align 8, !tbaa !15
  %14 = getelementptr inbounds nuw i8, ptr %13, i64 1424
  %15 = load double, ptr %14, align 8, !tbaa !105
  %16 = fmul reassoc nsz arcp contract afn double %15, 5.000000e+00
  %17 = fsub reassoc nsz arcp contract afn double %12, %16
  %18 = fcmp reassoc nsz arcp contract afn ogt double %10, %17
  br i1 %18, label %19, label %27

19:                                               ; preds = %8
  %20 = load i32, ptr %1, align 8, !tbaa !142
  %21 = icmp eq i32 %20, 4
  br i1 %21, label %22, label %27

22:                                               ; preds = %19
  %23 = getelementptr inbounds nuw i8, ptr %1, i64 52
  %24 = load i32, ptr %23, align 4, !tbaa !141
  %25 = icmp eq i32 %24, 1
  br i1 %25, label %26, label %27

26:                                               ; preds = %22
  store i1 true, ptr @_resize_wrap_dragging, align 4
  br label %27

27:                                               ; preds = %22, %19, %8, %26, %7
  %.0 = phi i32 [ 1, %7 ], [ 1, %26 ], [ 0, %8 ], [ 0, %19 ], [ 0, %22 ]
  ret i32 %.0
}